; Function Attrs: mustprogress uwtable
define internal void @_ZNK10open_spiel12_GLOBAL__N_124InformationStateObserver11WriteTensorERKNS_5StateEiPNS_9AllocatorE(ptr noundef nonnull align 8 dereferenceable(44) %0, ptr noundef nonnull align 8 dereferenceable(60) %1, i32 noundef %2, ptr noundef %3) unnamed_addr #3 align 2 personality ptr @__gxx_personality_v0 {
_ZN4absl7debian211string_viewC2EPKc.exit:
  %4 = alloca %"class.open_spiel::SpanTensor", align 8
  %5 = getelementptr inbounds nuw i8, ptr %0, i64 16
  %6 = load ptr, ptr %3, align 8
  %7 = load ptr, ptr %6, align 8
  call void %7(ptr dead_on_unwind nonnull writable sret(%"class.open_spiel::SpanTensor") align 8 %4, ptr noundef nonnull align 8 dereferenceable(8) %3, ptr nonnull @.str.33, i64 10, ptr noundef nonnull align 8 dereferenceable(24) %5)
  %8 = getelementptr inbounds nuw i8, ptr %4, i64 56
  %.sroa.0.0.copyload.i = load ptr, ptr %8, align 8
  %.sroa.2.0..sroa_idx.i = getelementptr inbounds nuw i8, ptr %4, i64 64
  %.sroa.2.0.copyload.i = load i64, ptr %.sroa.2.0..sroa_idx.i, align 8
  %9 = load ptr, ptr %1, align 8
  %10 = getelementptr inbounds nuw i8, ptr %9, i64 160
  %11 = load ptr, ptr %10, align 8
  invoke void %11(ptr noundef nonnull align 8 dereferenceable(60) %1, i32 noundef %2, ptr %.sroa.0.0.copyload.i, i64 %.sroa.2.0.copyload.i)
          to label %12 unwind label %22

12:                                               ; preds = %_ZN4absl7debian211string_viewC2EPKc.exit
  %13 = getelementptr inbounds nuw i8, ptr %4, i64 32
  %14 = load i64, ptr %13, align 8
  %15 = and i64 %14, 1
  %.not.i.i.i.i.i = icmp eq i64 %15, 0
  br i1 %.not.i.i.i.i.i, label %_ZN10open_spiel10SpanTensorD2Ev.exit, label %16

16:                                               ; preds = %12
  %17 = getelementptr inbounds nuw i8, ptr %4, i64 40
  %18 = load ptr, ptr %17, align 8
  %19 = getelementptr inbounds nuw i8, ptr %4, i64 48
  %20 = load i64, ptr %19, align 8
  %21 = shl i64 %20, 2
  call void @_ZdlPvm(ptr noundef %18, i64 noundef %21) #25
  br label %_ZN10open_spiel10SpanTensorD2Ev.exit

_ZN10open_spiel10SpanTensorD2Ev.exit:             ; preds = %12, %16
  call void @_ZNSt7__cxx1112basic_stringIcSt11char_traitsIcESaIcEED1Ev(ptr noundef nonnull align 8 dereferenceable(72) %4) #26
  ret void

22:                                               ; preds = %_ZN4absl7debian211string_viewC2EPKc.exit
  %23 = landingpad { ptr, i32 }
          cleanup
  call void @_ZN10open_spiel10SpanTensorD2Ev(ptr noundef nonnull align 8 dereferenceable(72) %4) #26
  resume { ptr, i32 } %23
}